target datalayout = "e-m:e-p270:32:32-p271:32:32-p272:64:64-i64:64-i128:128-f80:128-n8:16:32:64-S128"
target triple = "x86_64-pc-linux-gnu"

%struct.method_entry_arg = type { ptr, i32 }
%struct.rb_method_entry_struct = type { i64, i64, ptr, i64, i64 }

; Function Attrs: nounwind sspstrong uwtable
define internal i32 @method_entry_i(i64 noundef %0, i64 noundef %1, ptr noundef %2) #0 {
  %4 = alloca i32, align 4
  %5 = alloca i64, align 8
  %6 = alloca i64, align 8
  %7 = alloca ptr, align 8
  %8 = alloca ptr, align 8
  %9 = alloca ptr, align 8
  %10 = alloca i32, align 4
  %11 = alloca i64, align 8
  %12 = alloca i32, align 4
  store i64 %0, ptr %5, align 8, !tbaa !7
  store i64 %1, ptr %6, align 8, !tbaa !7
  store ptr %2, ptr %7, align 8, !tbaa !29
  call void @llvm.lifetime.start.p0(i64 8, ptr %8) #23
  %13 = load i64, ptr %6, align 8, !tbaa !7
  %14 = inttoptr i64 %13 to ptr
  store ptr %14, ptr %8, align 8, !tbaa !96
  call void @llvm.lifetime.start.p0(i64 8, ptr %9) #23
  %15 = load ptr, ptr %7, align 8, !tbaa !29
  store ptr %15, ptr %9, align 8, !tbaa !98
  call void @llvm.lifetime.start.p0(i64 4, ptr %10) #23
  %16 = load ptr, ptr %8, align 8, !tbaa !96
  %17 = getelementptr inbounds nuw %struct.rb_method_entry_struct, ptr %16, i32 0, i32 2
  %18 = load ptr, ptr %17, align 8, !tbaa !100
  %19 = load i64, ptr %18, align 8
  %20 = and i64 %19, 15
  %21 = trunc i64 %20 to i32
  %22 = icmp eq i32 %21, 11
  br i1 %22, label %23, label %48

23:                                               ; preds = %3
  call void @llvm.lifetime.start.p0(i64 8, ptr %11) #23
  %24 = load ptr, ptr %8, align 8, !tbaa !96
  %25 = getelementptr inbounds nuw %struct.rb_method_entry_struct, ptr %24, i32 0, i32 4
  %26 = load i64, ptr %25, align 8, !tbaa !103
  store i64 %26, ptr %11, align 8, !tbaa !7
  %27 = load ptr, ptr %8, align 8, !tbaa !96
  %28 = call ptr @rb_resolve_refined_method(i64 noundef 4, ptr noundef %27)
  store ptr %28, ptr %8, align 8, !tbaa !96
  %29 = load ptr, ptr %8, align 8, !tbaa !96
  %30 = icmp ne ptr %29, null
  br i1 %30, label %32, label %31

31:                                               ; preds = %23
  store i32 0, ptr %4, align 4
  store i32 1, ptr %12, align 4
  br label %45

32:                                               ; preds = %23
  %33 = load ptr, ptr %9, align 8, !tbaa !98
  %34 = getelementptr inbounds nuw %struct.method_entry_arg, ptr %33, i32 0, i32 1
  %35 = load i32, ptr %34, align 8, !tbaa !88
  %36 = icmp ne i32 %35, 0
  br i1 %36, label %44, label %37

37:                                               ; preds = %32
  %38 = load ptr, ptr %8, align 8, !tbaa !96
  %39 = getelementptr inbounds nuw %struct.rb_method_entry_struct, ptr %38, i32 0, i32 4
  %40 = load i64, ptr %39, align 8, !tbaa !103
  %41 = load i64, ptr %11, align 8, !tbaa !7
  %42 = icmp ne i64 %40, %41
  br i1 %42, label %43, label %44

43:                                               ; preds = %37
  store i32 0, ptr %4, align 4
  store i32 1, ptr %12, align 4
  br label %45

44:                                               ; preds = %37, %32
  store i32 0, ptr %12, align 4
  br label %45

45:                                               ; preds = %44, %43, %31
  call void @llvm.lifetime.end.p0(i64 8, ptr %11) #23
  %46 = load i32, ptr %12, align 4
  switch i32 %46, label %87 [
    i32 0, label %47
  ]

47:                                               ; preds = %45
  br label %48

48:                                               ; preds = %47, %3
  %49 = load ptr, ptr %9, align 8, !tbaa !98
  %50 = getelementptr inbounds nuw %struct.method_entry_arg, ptr %49, i32 0, i32 0
  %51 = load ptr, ptr %50, align 8, !tbaa !85
  %52 = load i64, ptr %5, align 8, !tbaa !7
  %53 = call i32 @rb_st_lookup(ptr noundef %51, i64 noundef %52, ptr noundef null)
  %54 = icmp ne i32 %53, 0
  br i1 %54, label %86, label %55

55:                                               ; preds = %48
  %56 = load ptr, ptr %8, align 8, !tbaa !96
  %57 = icmp ne ptr %56, null
  br i1 %57, label %58, label %71

58:                                               ; preds = %55
  %59 = load ptr, ptr %8, align 8, !tbaa !96
  %60 = getelementptr inbounds nuw %struct.rb_method_entry_struct, ptr %59, i32 0, i32 2
  %61 = load ptr, ptr %60, align 8, !tbaa !100
  %62 = icmp ne ptr %61, null
  br i1 %62, label %63, label %71

63:                                               ; preds = %58
  %64 = load ptr, ptr %8, align 8, !tbaa !96
  %65 = getelementptr inbounds nuw %struct.rb_method_entry_struct, ptr %64, i32 0, i32 2
  %66 = load ptr, ptr %65, align 8, !tbaa !100
  %67 = load i64, ptr %66, align 8
  %68 = and i64 %67, 15
  %69 = trunc i64 %68 to i32
  %70 = icmp eq i32 %69, 7
  br i1 %70, label %71, label %72

71:                                               ; preds = %63, %58, %55
  store i32 0, ptr %10, align 4, !tbaa !39
  br label %79

72:                                               ; preds = %63
  %73 = load ptr, ptr %8, align 8, !tbaa !96
  %74 = getelementptr inbounds nuw %struct.rb_method_entry_struct, ptr %73, i32 0, i32 0
  %75 = load i64, ptr %74, align 8, !tbaa !104
  %76 = and i64 %75, 196608
  %77 = lshr i64 %76, 16
  %78 = trunc i64 %77 to i32
  store i32 %78, ptr %10, align 4, !tbaa !39
  br label %79

79:                                               ; preds = %72, %71
  %80 = load ptr, ptr %9, align 8, !tbaa !98
  %81 = getelementptr inbounds nuw %struct.method_entry_arg, ptr %80, i32 0, i32 0
  %82 = load ptr, ptr %81, align 8, !tbaa !85
  %83 = load i64, ptr %5, align 8, !tbaa !7
  %84 = load i32, ptr %10, align 4, !tbaa !39
  %85 = zext i32 %84 to i64
  call void @rb_st_add_direct(ptr noundef %82, i64 noundef %83, i64 noundef %85)
  br label %86

86:                                               ; preds = %79, %48
  store i32 0, ptr %4, align 4
  store i32 1, ptr %12, align 4
  br label %87

87:                                               ; preds = %86, %45
  call void @llvm.lifetime.end.p0(i64 4, ptr %10) #23
  call void @llvm.lifetime.end.p0(i64 8, ptr %9) #23
  call void @llvm.lifetime.end.p0(i64 8, ptr %8) #23
  %88 = load i32, ptr %4, align 4
  ret i32 %88
}