; Function Attrs: nounwind sspstrong uwtable
define internal noundef i32 @method_entry_i(i64 noundef %0, i64 noundef %1, ptr noundef readonly captures(none) %2) #0 {
  %4 = inttoptr i64 %1 to ptr
  %5 = getelementptr inbounds nuw i8, ptr %4, i64 16
  %6 = load ptr, ptr %5, align 8, !tbaa !57
  %7 = load i64, ptr %6, align 8
  %8 = and i64 %7, 15
  %9 = icmp eq i64 %8, 11
  br i1 %9, label %10, label %.critedge

10:                                               ; preds = %3
  %11 = getelementptr inbounds nuw i8, ptr %4, i64 32
  %12 = load i64, ptr %11, align 8, !tbaa !93
  %13 = tail call ptr @rb_resolve_refined_method(i64 noundef 4, ptr noundef nonnull %4) #19
  %.not = icmp eq ptr %13, null
  br i1 %.not, label %35, label %14

14:                                               ; preds = %10
  %15 = getelementptr inbounds nuw i8, ptr %2, i64 8
  %16 = load i32, ptr %15, align 8, !tbaa !86
  %.not24 = icmp eq i32 %16, 0
  br i1 %.not24, label %17, label %.critedge

17:                                               ; preds = %14
  %18 = getelementptr inbounds nuw i8, ptr %13, i64 32
  %19 = load i64, ptr %18, align 8, !tbaa !93
  %.not25 = icmp eq i64 %19, %12
  br i1 %.not25, label %.critedge, label %35

.critedge:                                        ; preds = %14, %17, %3
  %.021 = phi ptr [ %4, %3 ], [ %13, %17 ], [ %13, %14 ]
  %20 = load ptr, ptr %2, align 8, !tbaa !83
  %21 = tail call i32 @rb_st_lookup(ptr noundef %20, i64 noundef %0, ptr noundef null) #19
  %.not26 = icmp eq i32 %21, 0
  br i1 %.not26, label %22, label %35

22:                                               ; preds = %.critedge
  %23 = getelementptr inbounds nuw i8, ptr %.021, i64 16
  %24 = load ptr, ptr %23, align 8, !tbaa !57
  %.not28 = icmp eq ptr %24, null
  br i1 %.not28, label %33, label %25

25:                                               ; preds = %22
  %26 = load i64, ptr %24, align 8
  %27 = and i64 %26, 15
  %28 = icmp eq i64 %27, 7
  br i1 %28, label %33, label %29

29:                                               ; preds = %25
  %30 = load i64, ptr %.021, align 8, !tbaa !62
  %31 = lshr i64 %30, 16
  %32 = and i64 %31, 3
  br label %33

33:                                               ; preds = %22, %25, %29
  %.020 = phi i64 [ %32, %29 ], [ 0, %25 ], [ 0, %22 ]
  %34 = load ptr, ptr %2, align 8, !tbaa !83
  tail call void @rb_st_add_direct(ptr noundef %34, i64 noundef %0, i64 noundef %.020) #19
  br label %35

35:                                               ; preds = %.critedge, %33, %10, %17
  ret i32 0
}